target datalayout = "e-m:e-p270:32:32-p271:32:32-p272:64:64-i64:64-i128:128-f80:128-n8:16:32:64-S128"
target triple = "x86_64-pc-linux-gnu"

; Function Attrs: nounwind uwtable
define dso_local zeroext i1 @safe_strcpy(ptr noundef %0, ptr noundef %1, i64 noundef %2) #0 {
  %4 = alloca i1, align 1
  %5 = alloca ptr, align 8
  %6 = alloca ptr, align 8
  %7 = alloca i64, align 8
  %8 = alloca i64, align 8
  %9 = alloca i32, align 4
  store ptr %0, ptr %5, align 8, !tbaa !4
  store ptr %1, ptr %6, align 8, !tbaa !4
  store i64 %2, ptr %7, align 8, !tbaa !17
  call void @llvm.lifetime.start.p0(i64 8, ptr %8) #8
  store i64 0, ptr %8, align 8, !tbaa !17
  br label %10

10:                                               ; preds = %32, %3
  %11 = load i64, ptr %8, align 8, !tbaa !17
  %12 = load i64, ptr %7, align 8, !tbaa !17
  %13 = sub i64 %12, 1
  %14 = icmp ult i64 %11, %13
  br i1 %14, label %15, label %22

15:                                               ; preds = %10
  %16 = load ptr, ptr %6, align 8, !tbaa !4
  %17 = load i64, ptr %8, align 8, !tbaa !17
  %18 = getelementptr inbounds nuw i8, ptr %16, i64 %17
  %19 = load i8, ptr %18, align 1, !tbaa !19
  %20 = sext i8 %19 to i32
  %21 = icmp ne i32 %20, 0
  br label %22

22:                                               ; preds = %15, %10
  %23 = phi i1 [ false, %10 ], [ %21, %15 ]
  br i1 %23, label %24, label %35

24:                                               ; preds = %22
  %25 = load ptr, ptr %6, align 8, !tbaa !4
  %26 = load i64, ptr %8, align 8, !tbaa !17
  %27 = getelementptr inbounds nuw i8, ptr %25, i64 %26
  %28 = load i8, ptr %27, align 1, !tbaa !19
  %29 = load ptr, ptr %5, align 8, !tbaa !4
  %30 = load i64, ptr %8, align 8, !tbaa !17
  %31 = getelementptr inbounds nuw i8, ptr %29, i64 %30
  store i8 %28, ptr %31, align 1, !tbaa !19
  br label %32

32:                                               ; preds = %24
  %33 = load i64, ptr %8, align 8, !tbaa !17
  %34 = add i64 %33, 1
  store i64 %34, ptr %8, align 8, !tbaa !17
  br label %10, !llvm.loop !31

35:                                               ; preds = %22
  %36 = load ptr, ptr %5, align 8, !tbaa !4
  %37 = load i64, ptr %8, align 8, !tbaa !17
  %38 = getelementptr inbounds nuw i8, ptr %36, i64 %37
  store i8 0, ptr %38, align 1, !tbaa !19
  %39 = load ptr, ptr %6, align 8, !tbaa !4
  %40 = load i64, ptr %8, align 8, !tbaa !17
  %41 = getelementptr inbounds nuw i8, ptr %39, i64 %40
  %42 = load i8, ptr %41, align 1, !tbaa !19
  %43 = sext i8 %42 to i32
  %44 = icmp eq i32 %43, 0
  br i1 %44, label %45, label %46

45:                                               ; preds = %35
  store i1 true, ptr %4, align 1
  store i32 1, ptr %9, align 4
  br label %47

46:                                               ; preds = %35
  store i1 false, ptr %4, align 1
  store i32 1, ptr %9, align 4
  br label %47

47:                                               ; preds = %46, %45
  call void @llvm.lifetime.end.p0(i64 8, ptr %8) #8
  %48 = load i1, ptr %4, align 1
  ret i1 %48
}