; Function Attrs: nofree norecurse nosync nounwind memory(argmem: readwrite) uwtable
define dso_local zeroext i1 @safe_strcpy(ptr noundef writeonly captures(none) %0, ptr noundef readonly captures(none) %1, i64 noundef %2) local_unnamed_addr #9 {
  %4 = add i64 %2, -1
  %.not17 = icmp eq i64 %4, 0
  br i1 %.not17, label %.critedge, label %.lr.ph

.lr.ph:                                           ; preds = %3, %7
  %.014 = phi i64 [ %9, %7 ], [ 0, %3 ]
  %5 = getelementptr inbounds nuw i8, ptr %1, i64 %.014
  %6 = load i8, ptr %5, align 1, !tbaa !15
  %.not = icmp eq i8 %6, 0
  br i1 %.not, label %.critedge, label %7

7:                                                ; preds = %.lr.ph
  %8 = getelementptr inbounds nuw i8, ptr %0, i64 %.014
  store i8 %6, ptr %8, align 1, !tbaa !15
  %9 = add nuw i64 %.014, 1
  %exitcond.not = icmp eq i64 %9, %4
  br i1 %exitcond.not, label %.critedge, label %.lr.ph, !llvm.loop !23

.critedge:                                        ; preds = %.lr.ph, %7, %3
  %.0.lcssa = phi i64 [ 0, %3 ], [ %4, %7 ], [ %.014, %.lr.ph ]
  %10 = getelementptr inbounds nuw i8, ptr %0, i64 %.0.lcssa
  store i8 0, ptr %10, align 1, !tbaa !15
  %11 = getelementptr inbounds nuw i8, ptr %1, i64 %.0.lcssa
  %12 = load i8, ptr %11, align 1, !tbaa !15
  %13 = icmp eq i8 %12, 0
  ret i1 %13
}